target datalayout = "e-m:e-p270:32:32-p271:32:32-p272:64:64-i64:64-i128:128-f80:128-n8:16:32:64-S128"
target triple = "x86_64-pc-linux-gnu"

%struct.Py_complex = type { double, double }

@PyExc_ValueError = external global ptr, align 8
@.str.25 = private unnamed_addr constant [18 x i8] c"math domain error\00", align 1
@PyExc_OverflowError = external global ptr, align 8
@.str.26 = private unnamed_addr constant [17 x i8] c"math range error\00", align 1

; Function Attrs: nounwind uwtable
define internal { double, double } @cmath_asin_impl(ptr noundef %0, double %1, double %2) #0 {
  %4 = alloca %struct.Py_complex, align 8
  %5 = alloca %struct.Py_complex, align 8
  %6 = alloca ptr, align 8
  %7 = alloca %struct.Py_complex, align 8
  %8 = alloca %struct.Py_complex, align 8
  %9 = getelementptr inbounds nuw { double, double }, ptr %5, i32 0, i32 0
  store double %1, ptr %9, align 8
  %10 = getelementptr inbounds nuw { double, double }, ptr %5, i32 0, i32 1
  store double %2, ptr %10, align 8
  store ptr %0, ptr %6, align 8, !tbaa !3
  call void @llvm.lifetime.start.p0(i64 16, ptr %7) #8
  %11 = getelementptr inbounds nuw %struct.Py_complex, ptr %5, i32 0, i32 1
  %12 = load double, ptr %11, align 8, !tbaa !19
  %13 = fneg double %12
  %14 = getelementptr inbounds nuw %struct.Py_complex, ptr %7, i32 0, i32 0
  store double %13, ptr %14, align 8, !tbaa !17
  %15 = getelementptr inbounds nuw %struct.Py_complex, ptr %5, i32 0, i32 0
  %16 = load double, ptr %15, align 8, !tbaa !17
  %17 = getelementptr inbounds nuw %struct.Py_complex, ptr %7, i32 0, i32 1
  store double %16, ptr %17, align 8, !tbaa !19
  call void @llvm.lifetime.start.p0(i64 16, ptr %8) #8
  %18 = load ptr, ptr %6, align 8, !tbaa !3
  %19 = getelementptr inbounds nuw { double, double }, ptr %7, i32 0, i32 0
  %20 = load double, ptr %19, align 8
  %21 = getelementptr inbounds nuw { double, double }, ptr %7, i32 0, i32 1
  %22 = load double, ptr %21, align 8
  %23 = call { double, double } @cmath_asinh_impl(ptr noundef %18, double %20, double %22)
  %24 = getelementptr inbounds nuw { double, double }, ptr %8, i32 0, i32 0
  %25 = extractvalue { double, double } %23, 0
  store double %25, ptr %24, align 8
  %26 = getelementptr inbounds nuw { double, double }, ptr %8, i32 0, i32 1
  %27 = extractvalue { double, double } %23, 1
  store double %27, ptr %26, align 8
  call void @llvm.memcpy.p0.p0.i64(ptr align 8 %7, ptr align 8 %8, i64 16, i1 false), !tbaa.struct !8
  call void @llvm.lifetime.end.p0(i64 16, ptr %8) #8
  %28 = getelementptr inbounds nuw %struct.Py_complex, ptr %7, i32 0, i32 1
  %29 = load double, ptr %28, align 8, !tbaa !19
  %30 = getelementptr inbounds nuw %struct.Py_complex, ptr %4, i32 0, i32 0
  store double %29, ptr %30, align 8, !tbaa !17
  %31 = getelementptr inbounds nuw %struct.Py_complex, ptr %7, i32 0, i32 0
  %32 = load double, ptr %31, align 8, !tbaa !17
  %33 = fneg double %32
  %34 = getelementptr inbounds nuw %struct.Py_complex, ptr %4, i32 0, i32 1
  store double %33, ptr %34, align 8, !tbaa !19
  call void @llvm.lifetime.end.p0(i64 16, ptr %7) #8
  %35 = load { double, double }, ptr %4, align 8
  ret { double, double } %35
}

; Function Attrs: nounwind uwtable
define internal ptr @cmath_asin(ptr noundef %0, ptr noundef %1) #0 {
  %3 = alloca ptr, align 8
  %4 = alloca ptr, align 8
  %5 = alloca ptr, align 8
  %6 = alloca %struct.Py_complex, align 8
  %7 = alloca %struct.Py_complex, align 8
  %8 = alloca %struct.Py_complex, align 8
  %9 = alloca %struct.Py_complex, align 8
  store ptr %0, ptr %3, align 8, !tbaa !3
  store ptr %1, ptr %4, align 8, !tbaa !3
  call void @llvm.lifetime.start.p0(i64 8, ptr %5) #8
  store ptr null, ptr %5, align 8, !tbaa !3
  call void @llvm.lifetime.start.p0(i64 16, ptr %6) #8
  call void @llvm.lifetime.start.p0(i64 16, ptr %7) #8
  call void @llvm.lifetime.start.p0(i64 16, ptr %8) #8
  %10 = load ptr, ptr %4, align 8, !tbaa !3
  %11 = call { double, double } @PyComplex_AsCComplex(ptr noundef %10)
  %12 = getelementptr inbounds nuw { double, double }, ptr %8, i32 0, i32 0
  %13 = extractvalue { double, double } %11, 0
  store double %13, ptr %12, align 8
  %14 = getelementptr inbounds nuw { double, double }, ptr %8, i32 0, i32 1
  %15 = extractvalue { double, double } %11, 1
  store double %15, ptr %14, align 8
  call void @llvm.memcpy.p0.p0.i64(ptr align 8 %6, ptr align 8 %8, i64 16, i1 false), !tbaa.struct !8
  call void @llvm.lifetime.end.p0(i64 16, ptr %8) #8
  %16 = call ptr @PyErr_Occurred()
  %17 = icmp ne ptr %16, null
  br i1 %17, label %18, label %19

18:                                               ; preds = %2
  br label %50

19:                                               ; preds = %2
  %20 = call ptr @__errno_location() #9
  store i32 0, ptr %20, align 4, !tbaa !11
  call void @llvm.lifetime.start.p0(i64 16, ptr %9) #8
  %21 = load ptr, ptr %3, align 8, !tbaa !3
  %22 = getelementptr inbounds nuw { double, double }, ptr %6, i32 0, i32 0
  %23 = load double, ptr %22, align 8
  %24 = getelementptr inbounds nuw { double, double }, ptr %6, i32 0, i32 1
  %25 = load double, ptr %24, align 8
  %26 = call { double, double } @cmath_asin_impl(ptr noundef %21, double %23, double %25)
  %27 = getelementptr inbounds nuw { double, double }, ptr %9, i32 0, i32 0
  %28 = extractvalue { double, double } %26, 0
  store double %28, ptr %27, align 8
  %29 = getelementptr inbounds nuw { double, double }, ptr %9, i32 0, i32 1
  %30 = extractvalue { double, double } %26, 1
  store double %30, ptr %29, align 8
  call void @llvm.memcpy.p0.p0.i64(ptr align 8 %7, ptr align 8 %9, i64 16, i1 false), !tbaa.struct !8
  call void @llvm.lifetime.end.p0(i64 16, ptr %9) #8
  %31 = call ptr @__errno_location() #9
  %32 = load i32, ptr %31, align 4, !tbaa !11
  %33 = icmp eq i32 %32, 33
  br i1 %33, label %34, label %36

34:                                               ; preds = %19
  %35 = load ptr, ptr @PyExc_ValueError, align 8, !tbaa !3
  call void @PyErr_SetString(ptr noundef %35, ptr noundef @.str.25)
  br label %50

36:                                               ; preds = %19
  %37 = call ptr @__errno_location() #9
  %38 = load i32, ptr %37, align 4, !tbaa !11
  %39 = icmp eq i32 %38, 34
  br i1 %39, label %40, label %42

40:                                               ; preds = %36
  %41 = load ptr, ptr @PyExc_OverflowError, align 8, !tbaa !3
  call void @PyErr_SetString(ptr noundef %41, ptr noundef @.str.26)
  br label %50

42:                                               ; preds = %36
  %43 = getelementptr inbounds nuw { double, double }, ptr %7, i32 0, i32 0
  %44 = load double, ptr %43, align 8
  %45 = getelementptr inbounds nuw { double, double }, ptr %7, i32 0, i32 1
  %46 = load double, ptr %45, align 8
  %47 = call ptr @PyComplex_FromCComplex(double %44, double %46)
  store ptr %47, ptr %5, align 8, !tbaa !3
  br label %48

48:                                               ; preds = %42
  br label %49

49:                                               ; preds = %48
  br label %50

50:                                               ; preds = %49, %40, %34, %18
  %51 = load ptr, ptr %5, align 8, !tbaa !3
  call void @llvm.lifetime.end.p0(i64 16, ptr %7) #8
  call void @llvm.lifetime.end.p0(i64 16, ptr %6) #8
  call void @llvm.lifetime.end.p0(i64 8, ptr %5) #8
  ret ptr %51
}